; Function Attrs: mustprogress nofree norecurse nosync nounwind memory(argmem: readwrite) uwtable
define internal void @_ZL13tMPI_CHAR_lorPvPKvS1_i(ptr noundef writeonly captures(none) %0, ptr noundef readonly captures(none) %1, ptr noundef readonly captures(none) %2, i32 noundef %3) #0 {
  %5 = icmp sgt i32 %3, 0
  br i1 %5, label %.lr.ph.preheader, label %._crit_edge

.lr.ph.preheader:                                 ; preds = %4
  %wide.trip.count = zext nneg i32 %3 to i64
  br label %.lr.ph

.lr.ph:                                           ; preds = %.lr.ph.preheader, %13
  %indvars.iv = phi i64 [ 0, %.lr.ph.preheader ], [ %indvars.iv.next, %13 ]
  %6 = getelementptr inbounds nuw i8, ptr %1, i64 %indvars.iv
  %7 = load i8, ptr %6, align 1, !tbaa !13
  %.not = icmp eq i8 %7, 0
  br i1 %.not, label %8, label %13

8:                                                ; preds = %.lr.ph
  %9 = getelementptr inbounds nuw i8, ptr %2, i64 %indvars.iv
  %10 = load i8, ptr %9, align 1, !tbaa !13
  %11 = icmp ne i8 %10, 0
  %12 = zext i1 %11 to i8
  br label %13

13:                                               ; preds = %8, %.lr.ph
  %14 = phi i8 [ 1, %.lr.ph ], [ %12, %8 ]
  %15 = getelementptr inbounds nuw i8, ptr %0, i64 %indvars.iv
  store i8 %14, ptr %15, align 1, !tbaa !13
  %indvars.iv.next = add nuw nsw i64 %indvars.iv, 1
  %exitcond.not = icmp eq i64 %indvars.iv.next, %wide.trip.count
  br i1 %exitcond.not, label %._crit_edge, label %.lr.ph, !llvm.loop !20

._crit_edge:                                      ; preds = %13, %4
  ret void
}